target datalayout = "e-m:e-p270:32:32-p271:32:32-p272:64:64-i64:64-i128:128-f80:128-n8:16:32:64-S128"
target triple = "x86_64-pc-linux-gnu"

%struct.Map_NodeStruct_t_ = type { ptr, ptr, i32, i32, i32, i32, [3 x i32], [3 x float], float, ptr, ptr, ptr, ptr, [2 x %struct.Map_TimeStruct_t_], [2 x %struct.Map_TimeStruct_t_], [2 x ptr], ptr, ptr, ptr }
%struct.Map_TimeStruct_t_ = type { float, float, float }
%struct.Map_CutStruct_t_ = type { ptr, ptr, ptr, [6 x ptr], i32, i8, i8, i8, i8, [2 x %struct.Map_MatchStruct_t_] }
%struct.Map_MatchStruct_t_ = type { ptr, i32, i32, ptr, %struct.Map_TimeStruct_t_, float }

; Function Attrs: nounwind uwtable
define void @Map_MappingCutsInput(ptr noundef %0, ptr noundef %1) #0 {
  %3 = alloca ptr, align 8
  %4 = alloca ptr, align 8
  %5 = alloca ptr, align 8
  store ptr %0, ptr %3, align 8, !tbaa !3
  store ptr %1, ptr %4, align 8, !tbaa !26
  call void @llvm.lifetime.start.p0(i64 8, ptr %5) #9
  %6 = load ptr, ptr %3, align 8, !tbaa !3
  %7 = call ptr @Map_CutAlloc(ptr noundef %6)
  store ptr %7, ptr %5, align 8, !tbaa !30
  %8 = load ptr, ptr %5, align 8, !tbaa !30
  %9 = getelementptr inbounds nuw %struct.Map_CutStruct_t_, ptr %8, i32 0, i32 5
  store i8 1, ptr %9, align 4, !tbaa !31
  %10 = load ptr, ptr %4, align 8, !tbaa !26
  %11 = load ptr, ptr %5, align 8, !tbaa !30
  %12 = getelementptr inbounds nuw %struct.Map_CutStruct_t_, ptr %11, i32 0, i32 3
  %13 = getelementptr inbounds [6 x ptr], ptr %12, i64 0, i64 0
  store ptr %10, ptr %13, align 8, !tbaa !26
  %14 = load ptr, ptr %5, align 8, !tbaa !30
  %15 = load ptr, ptr %4, align 8, !tbaa !26
  %16 = getelementptr inbounds nuw %struct.Map_NodeStruct_t_, ptr %15, i32 0, i32 16
  store ptr %14, ptr %16, align 8, !tbaa !27
  %17 = load ptr, ptr %4, align 8, !tbaa !26
  %18 = getelementptr inbounds nuw %struct.Map_NodeStruct_t_, ptr %17, i32 0, i32 15
  %19 = getelementptr inbounds [2 x ptr], ptr %18, i64 0, i64 0
  store ptr null, ptr %19, align 8, !tbaa !30
  %20 = load ptr, ptr %5, align 8, !tbaa !30
  %21 = load ptr, ptr %4, align 8, !tbaa !26
  %22 = getelementptr inbounds nuw %struct.Map_NodeStruct_t_, ptr %21, i32 0, i32 15
  %23 = getelementptr inbounds [2 x ptr], ptr %22, i64 0, i64 1
  store ptr %20, ptr %23, align 8, !tbaa !30
  %24 = load ptr, ptr %5, align 8, !tbaa !30
  %25 = getelementptr inbounds nuw %struct.Map_CutStruct_t_, ptr %24, i32 0, i32 4
  store i32 -1431655766, ptr %25, align 8, !tbaa !39
  %26 = load ptr, ptr %5, align 8, !tbaa !30
  %27 = getelementptr inbounds nuw %struct.Map_CutStruct_t_, ptr %26, i32 0, i32 9
  %28 = getelementptr inbounds [2 x %struct.Map_MatchStruct_t_], ptr %27, i64 0, i64 0
  %29 = getelementptr inbounds nuw %struct.Map_MatchStruct_t_, ptr %28, i32 0, i32 5
  store float 0.000000e+00, ptr %29, align 4, !tbaa !40
  %30 = load ptr, ptr %5, align 8, !tbaa !30
  %31 = getelementptr inbounds nuw %struct.Map_CutStruct_t_, ptr %30, i32 0, i32 9
  %32 = getelementptr inbounds [2 x %struct.Map_MatchStruct_t_], ptr %31, i64 0, i64 1
  %33 = getelementptr inbounds nuw %struct.Map_MatchStruct_t_, ptr %32, i32 0, i32 5
  store float 0.000000e+00, ptr %33, align 4, !tbaa !40
  call void @llvm.lifetime.end.p0(i64 8, ptr %5) #9
  ret void
}