; Function Attrs: nounwind uwtable
define void @Map_MappingCutsInput(ptr noundef %0, ptr noundef %1) local_unnamed_addr #2 {
  %3 = tail call ptr @Map_CutAlloc(ptr noundef %0) #18
  %4 = getelementptr inbounds nuw i8, ptr %3, i64 76
  store i8 1, ptr %4, align 4, !tbaa !26
  %5 = getelementptr inbounds nuw i8, ptr %3, i64 24
  store ptr %1, ptr %5, align 8, !tbaa !23
  %6 = getelementptr inbounds nuw i8, ptr %1, i64 160
  store ptr %3, ptr %6, align 8, !tbaa !32
  %7 = getelementptr inbounds nuw i8, ptr %1, i64 144
  store ptr null, ptr %7, align 8, !tbaa !24
  %8 = getelementptr inbounds nuw i8, ptr %1, i64 152
  store ptr %3, ptr %8, align 8, !tbaa !24
  %9 = getelementptr inbounds nuw i8, ptr %3, i64 72
  store i32 -1431655766, ptr %9, align 8, !tbaa !35
  %10 = getelementptr inbounds nuw i8, ptr %3, i64 116
  store float 0.000000e+00, ptr %10, align 4, !tbaa !36
  %11 = getelementptr inbounds nuw i8, ptr %3, i64 156
  store float 0.000000e+00, ptr %11, align 4, !tbaa !36
  ret void
}